target datalayout = "e-m:e-p270:32:32-p271:32:32-p272:64:64-i64:64-i128:128-f80:128-n8:16:32:64-S128"
target triple = "x86_64-pc-linux-gnu"

%struct._zend_array = type { %struct._zend_refcounted_h, %union.anon.4, i32, %union.anon.6, i32, i32, i32, i32, i64, ptr }
%struct._zend_refcounted_h = type { i32, %union.anon.3 }
%union.anon.3 = type { i32 }
%union.anon.4 = type { i32 }
%union.anon.6 = type { ptr }
%struct._zval_struct = type { %union._zend_value, %union.anon, %union.anon.2 }
%union._zend_value = type { i64 }
%union.anon = type { i32 }
%union.anon.2 = type { i32 }
%struct._phar_entry_info = type { i32, i32, i32, i32, i32, i32, %struct._phar_metadata_tracker, i32, ptr, i32, i64, i64, i64, ptr, ptr, i32, ptr, ptr, ptr, i8, i32, i16, i16 }
%struct._phar_metadata_tracker = type { %struct._zval_struct, ptr }
%struct._phar_archive_data = type { ptr, i32, ptr, i32, ptr, i32, [12 x i8], i64, i64, %struct._zend_array, %struct._zend_array, %struct._zend_array, i32, i32, i32, ptr, ptr, i32, i32, i32, ptr, %struct._phar_metadata_tracker, i32, i16 }

@.str.21 = private unnamed_addr constant [59 x i8] c"phar error: cannot seek to start of file \22%s\22 in phar \22%s\22\00", align 1

; Function Attrs: nounwind uwtable
define hidden ptr @phar_open_jit(ptr noundef %0, ptr noundef %1, ptr noundef %2) #0 {
  %4 = alloca ptr, align 8
  %5 = alloca ptr, align 8
  %6 = alloca ptr, align 8
  %7 = alloca ptr, align 8
  store ptr %0, ptr %5, align 8
  store ptr %1, ptr %6, align 8
  store ptr %2, ptr %7, align 8
  %8 = load ptr, ptr %7, align 8
  %9 = icmp ne ptr %8, null
  br i1 %9, label %10, label %12

10:                                               ; preds = %3
  %11 = load ptr, ptr %7, align 8
  store ptr null, ptr %11, align 8
  br label %12

12:                                               ; preds = %10, %3
  %13 = load ptr, ptr %6, align 8
  %14 = load ptr, ptr %7, align 8
  %15 = call i32 @phar_open_entry_fp(ptr noundef %13, ptr noundef %14, i32 noundef 1)
  %16 = icmp eq i32 -1, %15
  br i1 %16, label %17, label %18

17:                                               ; preds = %12
  store ptr null, ptr %4, align 8
  br label %33

18:                                               ; preds = %12
  %19 = load ptr, ptr %6, align 8
  %20 = call i32 @phar_seek_efp(ptr noundef %19, i64 noundef 0, i32 noundef 0, i64 noundef 0, i32 noundef 1)
  %21 = icmp eq i32 -1, %20
  br i1 %21, label %22, label %31

22:                                               ; preds = %18
  %23 = load ptr, ptr %7, align 8
  %24 = load ptr, ptr %6, align 8
  %25 = getelementptr inbounds %struct._phar_entry_info, ptr %24, i32 0, i32 8
  %26 = load ptr, ptr %25, align 8
  %27 = load ptr, ptr %5, align 8
  %28 = getelementptr inbounds %struct._phar_archive_data, ptr %27, i32 0, i32 0
  %29 = load ptr, ptr %28, align 8
  %30 = call i64 (ptr, i64, ptr, ...) @zend_spprintf(ptr noundef %23, i64 noundef 4096, ptr noundef @.str.21, ptr noundef %26, ptr noundef %29)
  store ptr null, ptr %4, align 8
  br label %33

31:                                               ; preds = %18
  %32 = load ptr, ptr %6, align 8
  store ptr %32, ptr %4, align 8
  br label %33

33:                                               ; preds = %31, %22, %17
  %34 = load ptr, ptr %4, align 8
  ret ptr %34
}