; Function Attrs: nounwind uwtable
define hidden noundef ptr @phar_open_jit(ptr nocapture noundef readonly %0, ptr noundef %1, ptr noundef %2) local_unnamed_addr #0 {
  %.not = icmp eq ptr %2, null
  br i1 %.not, label %.split, label %.split11

.split:                                           ; preds = %3
  %4 = tail call i32 @phar_open_entry_fp(ptr noundef %1, ptr noundef null, i32 noundef 1), !range !5
  br label %6

.split11:                                         ; preds = %3
  store ptr null, ptr %2, align 8
  %5 = tail call i32 @phar_open_entry_fp(ptr noundef %1, ptr noundef nonnull %2, i32 noundef 1), !range !5
  br label %6

6:                                                ; preds = %.split, %.split11
  %phi.call = phi i32 [ %4, %.split ], [ %5, %.split11 ]
  %7 = icmp eq i32 %phi.call, -1
  br i1 %7, label %16, label %8

8:                                                ; preds = %6
  %9 = tail call i32 @phar_seek_efp(ptr noundef %1, i64 noundef 0, i32 noundef 0, i64 noundef 0, i32 noundef 1)
  %10 = icmp eq i32 %9, -1
  br i1 %10, label %11, label %16

11:                                               ; preds = %8
  %12 = getelementptr inbounds i8, ptr %1, i64 56
  %13 = load ptr, ptr %12, align 8
  %14 = load ptr, ptr %0, align 8
  %15 = tail call i64 (ptr, i64, ptr, ...) @zend_spprintf(ptr noundef %2, i64 noundef 4096, ptr noundef nonnull @.str.21, ptr noundef %13, ptr noundef %14) #15
  br label %16

16:                                               ; preds = %8, %6, %11
  %.0 = phi ptr [ null, %11 ], [ null, %6 ], [ %1, %8 ]
  ret ptr %.0
}